target datalayout = "e-m:e-p270:32:32-p271:32:32-p272:64:64-i64:64-i128:128-f80:128-n8:16:32:64-S128"
target triple = "x86_64-pc-linux-gnu"

; Function Attrs: inlinehint mustprogress nounwind uwtable
define internal noundef i32 @_ZN11duckdb_zstdL24ZSTD_countLeadingZeros32Ej(i32 noundef %0) #9 {
  %2 = alloca i32, align 4
  store i32 %0, ptr %2, align 4, !tbaa !13
  %3 = load i32, ptr %2, align 4, !tbaa !13
  %4 = call i32 @llvm.ctlz.i32(i32 %3, i1 true)
  ret i32 %4
}

; Function Attrs: mustprogress nounwind uwtable
define internal noundef i32 @_ZN11duckdb_zstdL11ERR_isErrorEm(i64 noundef %0) #0 {
  %2 = alloca i64, align 8
  store i64 %0, ptr %2, align 8, !tbaa !3
  %3 = load i64, ptr %2, align 8, !tbaa !3
  %4 = icmp ugt i64 %3, -120
  %5 = zext i1 %4 to i32
  ret i32 %5
}

; Function Attrs: inlinehint mustprogress uwtable
define internal noundef i32 @_ZN11duckdb_zstdL14ZSTD_highbit32Ej(i32 noundef %0) #8 {
  %2 = alloca i32, align 4
  store i32 %0, ptr %2, align 4, !tbaa !13
  %3 = load i32, ptr %2, align 4, !tbaa !13
  %4 = call noundef i32 @_ZN11duckdb_zstdL24ZSTD_countLeadingZeros32Ej(i32 noundef %3)
  %5 = sub i32 31, %4
  ret i32 %5
}

; Function Attrs: mustprogress uwtable
define noundef i32 @_ZN11duckdb_zstd11FSE_isErrorEm(i64 noundef %0) #1 {
  %2 = alloca i64, align 8
  store i64 %0, ptr %2, align 8, !tbaa !3
  %3 = load i64, ptr %2, align 8, !tbaa !3
  %4 = call noundef i32 @_ZN11duckdb_zstdL11ERR_isErrorEm(i64 noundef %3)
  ret i32 %4
}

; Function Attrs: alwaysinline mustprogress uwtable
define internal noundef i64 @_ZN11duckdb_zstdL18HUF_readStats_bodyEPhmPjS1_S1_PKvmPvmi(ptr noundef %0, i64 noundef %1, ptr noundef %2, ptr noundef %3, ptr noundef %4, ptr noundef %5, i64 noundef %6, ptr noundef %7, i64 noundef %8, i32 noundef %9) #5 {
  %11 = alloca i64, align 8
  %12 = alloca ptr, align 8
  %13 = alloca i64, align 8
  %14 = alloca ptr, align 8
  %15 = alloca ptr, align 8
  %16 = alloca ptr, align 8
  %17 = alloca ptr, align 8
  %18 = alloca i64, align 8
  %19 = alloca ptr, align 8
  %20 = alloca i64, align 8
  %21 = alloca i32, align 4
  %22 = alloca i32, align 4
  %23 = alloca ptr, align 8
  %24 = alloca i64, align 8
  %25 = alloca i64, align 8
  %26 = alloca i32, align 4
  %27 = alloca i32, align 4
  %28 = alloca i32, align 4
  %29 = alloca i32, align 4
  %30 = alloca i32, align 4
  %31 = alloca i32, align 4
  %32 = alloca i32, align 4
  %33 = alloca i32, align 4
  store ptr %0, ptr %12, align 8, !tbaa !15
  store i64 %1, ptr %13, align 8, !tbaa !3
  store ptr %2, ptr %14, align 8, !tbaa !10
  store ptr %3, ptr %15, align 8, !tbaa !10
  store ptr %4, ptr %16, align 8, !tbaa !10
  store ptr %5, ptr %17, align 8, !tbaa !12
  store i64 %6, ptr %18, align 8, !tbaa !3
  store ptr %7, ptr %19, align 8, !tbaa !12
  store i64 %8, ptr %20, align 8, !tbaa !3
  store i32 %9, ptr %21, align 4, !tbaa !13
  call void @llvm.lifetime.start.p0(i64 4, ptr %22) #12
  call void @llvm.lifetime.start.p0(i64 8, ptr %23) #12
  %34 = load ptr, ptr %17, align 8, !tbaa !12
  store ptr %34, ptr %23, align 8, !tbaa !15
  call void @llvm.lifetime.start.p0(i64 8, ptr %24) #12
  call void @llvm.lifetime.start.p0(i64 8, ptr %25) #12
  %35 = load i64, ptr %18, align 8, !tbaa !3
  %36 = icmp ne i64 %35, 0
  br i1 %36, label %38, label %37

37:                                               ; preds = %10
  store i64 -72, ptr %11, align 8
  store i32 1, ptr %26, align 4
  br label %232

38:                                               ; preds = %10
  %39 = load ptr, ptr %23, align 8, !tbaa !15
  %40 = getelementptr inbounds i8, ptr %39, i64 0
  %41 = load i8, ptr %40, align 1, !tbaa !22
  %42 = zext i8 %41 to i64
  store i64 %42, ptr %24, align 8, !tbaa !3
  %43 = load i64, ptr %24, align 8, !tbaa !3
  %44 = icmp uge i64 %43, 128
  br i1 %44, label %45, label %101

45:                                               ; preds = %38
  %46 = load i64, ptr %24, align 8, !tbaa !3
  %47 = sub i64 %46, 127
  store i64 %47, ptr %25, align 8, !tbaa !3
  %48 = load i64, ptr %25, align 8, !tbaa !3
  %49 = add i64 %48, 1
  %50 = udiv i64 %49, 2
  store i64 %50, ptr %24, align 8, !tbaa !3
  %51 = load i64, ptr %24, align 8, !tbaa !3
  %52 = add i64 %51, 1
  %53 = load i64, ptr %18, align 8, !tbaa !3
  %54 = icmp ugt i64 %52, %53
  br i1 %54, label %55, label %56

55:                                               ; preds = %45
  store i64 -72, ptr %11, align 8
  store i32 1, ptr %26, align 4
  br label %232

56:                                               ; preds = %45
  %57 = load i64, ptr %25, align 8, !tbaa !3
  %58 = load i64, ptr %13, align 8, !tbaa !3
  %59 = icmp uge i64 %57, %58
  br i1 %59, label %60, label %61

60:                                               ; preds = %56
  store i64 -20, ptr %11, align 8
  store i32 1, ptr %26, align 4
  br label %232

61:                                               ; preds = %56
  %62 = load ptr, ptr %23, align 8, !tbaa !15
  %63 = getelementptr inbounds i8, ptr %62, i64 1
  store ptr %63, ptr %23, align 8, !tbaa !15
  call void @llvm.lifetime.start.p0(i64 4, ptr %27) #12
  store i32 0, ptr %27, align 4, !tbaa !13
  br label %64

64:                                               ; preds = %97, %61
  %65 = load i32, ptr %27, align 4, !tbaa !13
  %66 = zext i32 %65 to i64
  %67 = load i64, ptr %25, align 8, !tbaa !3
  %68 = icmp ult i64 %66, %67
  br i1 %68, label %69, label %100

69:                                               ; preds = %64
  %70 = load ptr, ptr %23, align 8, !tbaa !15
  %71 = load i32, ptr %27, align 4, !tbaa !13
  %72 = udiv i32 %71, 2
  %73 = zext i32 %72 to i64
  %74 = getelementptr inbounds nuw i8, ptr %70, i64 %73
  %75 = load i8, ptr %74, align 1, !tbaa !22
  %76 = zext i8 %75 to i32
  %77 = ashr i32 %76, 4
  %78 = trunc i32 %77 to i8
  %79 = load ptr, ptr %12, align 8, !tbaa !15
  %80 = load i32, ptr %27, align 4, !tbaa !13
  %81 = zext i32 %80 to i64
  %82 = getelementptr inbounds nuw i8, ptr %79, i64 %81
  store i8 %78, ptr %82, align 1, !tbaa !22
  %83 = load ptr, ptr %23, align 8, !tbaa !15
  %84 = load i32, ptr %27, align 4, !tbaa !13
  %85 = udiv i32 %84, 2
  %86 = zext i32 %85 to i64
  %87 = getelementptr inbounds nuw i8, ptr %83, i64 %86
  %88 = load i8, ptr %87, align 1, !tbaa !22
  %89 = zext i8 %88 to i32
  %90 = and i32 %89, 15
  %91 = trunc i32 %90 to i8
  %92 = load ptr, ptr %12, align 8, !tbaa !15
  %93 = load i32, ptr %27, align 4, !tbaa !13
  %94 = add i32 %93, 1
  %95 = zext i32 %94 to i64
  %96 = getelementptr inbounds nuw i8, ptr %92, i64 %95
  store i8 %91, ptr %96, align 1, !tbaa !22
  br label %97

97:                                               ; preds = %69
  %98 = load i32, ptr %27, align 4, !tbaa !13
  %99 = add i32 %98, 2
  store i32 %99, ptr %27, align 4, !tbaa !13
  br label %64, !llvm.loop !23

100:                                              ; preds = %64
  call void @llvm.lifetime.end.p0(i64 4, ptr %27) #12
  br label %124

101:                                              ; preds = %38
  %102 = load i64, ptr %24, align 8, !tbaa !3
  %103 = add i64 %102, 1
  %104 = load i64, ptr %18, align 8, !tbaa !3
  %105 = icmp ugt i64 %103, %104
  br i1 %105, label %106, label %107

106:                                              ; preds = %101
  store i64 -72, ptr %11, align 8
  store i32 1, ptr %26, align 4
  br label %232

107:                                              ; preds = %101
  %108 = load ptr, ptr %12, align 8, !tbaa !15
  %109 = load i64, ptr %13, align 8, !tbaa !3
  %110 = sub i64 %109, 1
  %111 = load ptr, ptr %23, align 8, !tbaa !15
  %112 = getelementptr inbounds i8, ptr %111, i64 1
  %113 = load i64, ptr %24, align 8, !tbaa !3
  %114 = load ptr, ptr %19, align 8, !tbaa !12
  %115 = load i64, ptr %20, align 8, !tbaa !3
  %116 = load i32, ptr %21, align 4, !tbaa !13
  %117 = call noundef i64 @_ZN11duckdb_zstd24FSE_decompress_wksp_bmi2EPvmPKvmjS0_mi(ptr noundef %108, i64 noundef %110, ptr noundef %112, i64 noundef %113, i32 noundef 6, ptr noundef %114, i64 noundef %115, i32 noundef %116)
  store i64 %117, ptr %25, align 8, !tbaa !3
  %118 = load i64, ptr %25, align 8, !tbaa !3
  %119 = call noundef i32 @_ZN11duckdb_zstd11FSE_isErrorEm(i64 noundef %118)
  %120 = icmp ne i32 %119, 0
  br i1 %120, label %121, label %123

121:                                              ; preds = %107
  %122 = load i64, ptr %25, align 8, !tbaa !3
  store i64 %122, ptr %11, align 8
  store i32 1, ptr %26, align 4
  br label %232

123:                                              ; preds = %107
  br label %124

124:                                              ; preds = %123, %100
  %125 = load ptr, ptr %14, align 8, !tbaa !10
  call void @llvm.memset.p0.i64(ptr align 4 %125, i8 0, i64 52, i1 false)
  store i32 0, ptr %22, align 4, !tbaa !13
  call void @llvm.lifetime.start.p0(i64 4, ptr %28) #12
  store i32 0, ptr %28, align 4, !tbaa !13
  br label %126

126:                                              ; preds = %161, %124
  %127 = load i32, ptr %28, align 4, !tbaa !13
  %128 = zext i32 %127 to i64
  %129 = load i64, ptr %25, align 8, !tbaa !3
  %130 = icmp ult i64 %128, %129
  br i1 %130, label %131, label %164

131:                                              ; preds = %126
  %132 = load ptr, ptr %12, align 8, !tbaa !15
  %133 = load i32, ptr %28, align 4, !tbaa !13
  %134 = zext i32 %133 to i64
  %135 = getelementptr inbounds nuw i8, ptr %132, i64 %134
  %136 = load i8, ptr %135, align 1, !tbaa !22
  %137 = zext i8 %136 to i32
  %138 = icmp sgt i32 %137, 12
  br i1 %138, label %139, label %140

139:                                              ; preds = %131
  store i64 -20, ptr %11, align 8
  store i32 1, ptr %26, align 4
  br label %165

140:                                              ; preds = %131
  %141 = load ptr, ptr %14, align 8, !tbaa !10
  %142 = load ptr, ptr %12, align 8, !tbaa !15
  %143 = load i32, ptr %28, align 4, !tbaa !13
  %144 = zext i32 %143 to i64
  %145 = getelementptr inbounds nuw i8, ptr %142, i64 %144
  %146 = load i8, ptr %145, align 1, !tbaa !22
  %147 = zext i8 %146 to i64
  %148 = getelementptr inbounds nuw i32, ptr %141, i64 %147
  %149 = load i32, ptr %148, align 4, !tbaa !13
  %150 = add i32 %149, 1
  store i32 %150, ptr %148, align 4, !tbaa !13
  %151 = load ptr, ptr %12, align 8, !tbaa !15
  %152 = load i32, ptr %28, align 4, !tbaa !13
  %153 = zext i32 %152 to i64
  %154 = getelementptr inbounds nuw i8, ptr %151, i64 %153
  %155 = load i8, ptr %154, align 1, !tbaa !22
  %156 = zext i8 %155 to i32
  %157 = shl i32 1, %156
  %158 = ashr i32 %157, 1
  %159 = load i32, ptr %22, align 4, !tbaa !13
  %160 = add i32 %159, %158
  store i32 %160, ptr %22, align 4, !tbaa !13
  br label %161

161:                                              ; preds = %140
  %162 = load i32, ptr %28, align 4, !tbaa !13
  %163 = add i32 %162, 1
  store i32 %163, ptr %28, align 4, !tbaa !13
  br label %126, !llvm.loop !24

164:                                              ; preds = %126
  store i32 0, ptr %26, align 4
  br label %165

165:                                              ; preds = %164, %139
  call void @llvm.lifetime.end.p0(i64 4, ptr %28) #12
  %166 = load i32, ptr %26, align 4
  switch i32 %166, label %232 [
    i32 0, label %167
  ]

167:                                              ; preds = %165
  %168 = load i32, ptr %22, align 4, !tbaa !13
  %169 = icmp eq i32 %168, 0
  br i1 %169, label %170, label %171

170:                                              ; preds = %167
  store i64 -20, ptr %11, align 8
  store i32 1, ptr %26, align 4
  br label %232

171:                                              ; preds = %167
  call void @llvm.lifetime.start.p0(i64 4, ptr %29) #12
  %172 = load i32, ptr %22, align 4, !tbaa !13
  %173 = call noundef i32 @_ZN11duckdb_zstdL14ZSTD_highbit32Ej(i32 noundef %172)
  %174 = add i32 %173, 1
  store i32 %174, ptr %29, align 4, !tbaa !13
  %175 = load i32, ptr %29, align 4, !tbaa !13
  %176 = icmp ugt i32 %175, 12
  br i1 %176, label %177, label %178

177:                                              ; preds = %171
  store i64 -20, ptr %11, align 8
  store i32 1, ptr %26, align 4
  br label %211

178:                                              ; preds = %171
  %179 = load i32, ptr %29, align 4, !tbaa !13
  %180 = load ptr, ptr %16, align 8, !tbaa !10
  store i32 %179, ptr %180, align 4, !tbaa !13
  call void @llvm.lifetime.start.p0(i64 4, ptr %30) #12
  %181 = load i32, ptr %29, align 4, !tbaa !13
  %182 = shl i32 1, %181
  store i32 %182, ptr %30, align 4, !tbaa !13
  call void @llvm.lifetime.start.p0(i64 4, ptr %31) #12
  %183 = load i32, ptr %30, align 4, !tbaa !13
  %184 = load i32, ptr %22, align 4, !tbaa !13
  %185 = sub i32 %183, %184
  store i32 %185, ptr %31, align 4, !tbaa !13
  call void @llvm.lifetime.start.p0(i64 4, ptr %32) #12
  %186 = load i32, ptr %31, align 4, !tbaa !13
  %187 = call noundef i32 @_ZN11duckdb_zstdL14ZSTD_highbit32Ej(i32 noundef %186)
  %188 = shl i32 1, %187
  store i32 %188, ptr %32, align 4, !tbaa !13
  call void @llvm.lifetime.start.p0(i64 4, ptr %33) #12
  %189 = load i32, ptr %31, align 4, !tbaa !13
  %190 = call noundef i32 @_ZN11duckdb_zstdL14ZSTD_highbit32Ej(i32 noundef %189)
  %191 = add i32 %190, 1
  store i32 %191, ptr %33, align 4, !tbaa !13
  %192 = load i32, ptr %32, align 4, !tbaa !13
  %193 = load i32, ptr %31, align 4, !tbaa !13
  %194 = icmp ne i32 %192, %193
  br i1 %194, label %195, label %196

195:                                              ; preds = %178
  store i64 -20, ptr %11, align 8
  store i32 1, ptr %26, align 4
  br label %208

196:                                              ; preds = %178
  %197 = load i32, ptr %33, align 4, !tbaa !13
  %198 = trunc i32 %197 to i8
  %199 = load ptr, ptr %12, align 8, !tbaa !15
  %200 = load i64, ptr %25, align 8, !tbaa !3
  %201 = getelementptr inbounds nuw i8, ptr %199, i64 %200
  store i8 %198, ptr %201, align 1, !tbaa !22
  %202 = load ptr, ptr %14, align 8, !tbaa !10
  %203 = load i32, ptr %33, align 4, !tbaa !13
  %204 = zext i32 %203 to i64
  %205 = getelementptr inbounds nuw i32, ptr %202, i64 %204
  %206 = load i32, ptr %205, align 4, !tbaa !13
  %207 = add i32 %206, 1
  store i32 %207, ptr %205, align 4, !tbaa !13
  store i32 0, ptr %26, align 4
  br label %208

208:                                              ; preds = %196, %195
  call void @llvm.lifetime.end.p0(i64 4, ptr %33) #12
  call void @llvm.lifetime.end.p0(i64 4, ptr %32) #12
  call void @llvm.lifetime.end.p0(i64 4, ptr %31) #12
  call void @llvm.lifetime.end.p0(i64 4, ptr %30) #12
  %209 = load i32, ptr %26, align 4
  switch i32 %209, label %211 [
    i32 0, label %210
  ]

210:                                              ; preds = %208
  store i32 0, ptr %26, align 4
  br label %211

211:                                              ; preds = %210, %208, %177
  call void @llvm.lifetime.end.p0(i64 4, ptr %29) #12
  %212 = load i32, ptr %26, align 4
  switch i32 %212, label %232 [
    i32 0, label %213
  ]

213:                                              ; preds = %211
  %214 = load ptr, ptr %14, align 8, !tbaa !10
  %215 = getelementptr inbounds i32, ptr %214, i64 1
  %216 = load i32, ptr %215, align 4, !tbaa !13
  %217 = icmp ult i32 %216, 2
  br i1 %217, label %224, label %218

218:                                              ; preds = %213
  %219 = load ptr, ptr %14, align 8, !tbaa !10
  %220 = getelementptr inbounds i32, ptr %219, i64 1
  %221 = load i32, ptr %220, align 4, !tbaa !13
  %222 = and i32 %221, 1
  %223 = icmp ne i32 %222, 0
  br i1 %223, label %224, label %225

224:                                              ; preds = %218, %213
  store i64 -20, ptr %11, align 8
  store i32 1, ptr %26, align 4
  br label %232

225:                                              ; preds = %218
  %226 = load i64, ptr %25, align 8, !tbaa !3
  %227 = add i64 %226, 1
  %228 = trunc i64 %227 to i32
  %229 = load ptr, ptr %15, align 8, !tbaa !10
  store i32 %228, ptr %229, align 4, !tbaa !13
  %230 = load i64, ptr %24, align 8, !tbaa !3
  %231 = add i64 %230, 1
  store i64 %231, ptr %11, align 8
  store i32 1, ptr %26, align 4
  br label %232

232:                                              ; preds = %225, %224, %211, %170, %165, %121, %106, %60, %55, %37
  call void @llvm.lifetime.end.p0(i64 8, ptr %25) #12
  call void @llvm.lifetime.end.p0(i64 8, ptr %24) #12
  call void @llvm.lifetime.end.p0(i64 8, ptr %23) #12
  call void @llvm.lifetime.end.p0(i64 4, ptr %22) #12
  %233 = load i64, ptr %11, align 8
  ret i64 %233
}

; Function Attrs: mustprogress uwtable
define internal noundef i64 @_ZN11duckdb_zstdL23HUF_readStats_body_bmi2EPhmPjS1_S1_PKvmPvm(ptr noundef %0, i64 noundef %1, ptr noundef %2, ptr noundef %3, ptr noundef %4, ptr noundef %5, i64 noundef %6, ptr noundef %7, i64 noundef %8) #2 {
  %10 = alloca ptr, align 8
  %11 = alloca i64, align 8
  %12 = alloca ptr, align 8
  %13 = alloca ptr, align 8
  %14 = alloca ptr, align 8
  %15 = alloca ptr, align 8
  %16 = alloca i64, align 8
  %17 = alloca ptr, align 8
  %18 = alloca i64, align 8
  store ptr %0, ptr %10, align 8, !tbaa !15
  store i64 %1, ptr %11, align 8, !tbaa !3
  store ptr %2, ptr %12, align 8, !tbaa !10
  store ptr %3, ptr %13, align 8, !tbaa !10
  store ptr %4, ptr %14, align 8, !tbaa !10
  store ptr %5, ptr %15, align 8, !tbaa !12
  store i64 %6, ptr %16, align 8, !tbaa !3
  store ptr %7, ptr %17, align 8, !tbaa !12
  store i64 %8, ptr %18, align 8, !tbaa !3
  %19 = load ptr, ptr %10, align 8, !tbaa !15
  %20 = load i64, ptr %11, align 8, !tbaa !3
  %21 = load ptr, ptr %12, align 8, !tbaa !10
  %22 = load ptr, ptr %13, align 8, !tbaa !10
  %23 = load ptr, ptr %14, align 8, !tbaa !10
  %24 = load ptr, ptr %15, align 8, !tbaa !12
  %25 = load i64, ptr %16, align 8, !tbaa !3
  %26 = load ptr, ptr %17, align 8, !tbaa !12
  %27 = load i64, ptr %18, align 8, !tbaa !3
  %28 = call noundef i64 @_ZN11duckdb_zstdL18HUF_readStats_bodyEPhmPjS1_S1_PKvmPvmi(ptr noundef %19, i64 noundef %20, ptr noundef %21, ptr noundef %22, ptr noundef %23, ptr noundef %24, i64 noundef %25, ptr noundef %26, i64 noundef %27, i32 noundef 1)
  ret i64 %28
}